; Function Attrs: mustprogress nofree norecurse nosync nounwind willreturn memory(argmem: readwrite) uwtable
define dso_local i8 @_ZN4Luau7CodeGen3A6413IrRegAllocA647takeRegENS1_11RegisterA64Ej(ptr noundef nonnull align 8 captures(none) dereferenceable(325) %0, i8 returned %1, i32 noundef %2) local_unnamed_addr #5 align 2 {
  %4 = and i8 %1, 7
  %.off.i = add nsw i8 %4, -1
  %switch.i = icmp ult i8 %.off.i, 2
  %.0.v.i = select i1 %switch.i, i64 16, i64 156
  %.0.i = getelementptr inbounds nuw i8, ptr %0, i64 %.0.v.i
  %5 = lshr i8 %1, 3
  %6 = zext nneg i8 %5 to i32
  %7 = shl nuw i32 1, %6
  %8 = xor i32 %7, -1
  %9 = getelementptr inbounds nuw i8, ptr %.0.i, i64 4
  %10 = load i32, ptr %9, align 4, !tbaa !21
  %11 = and i32 %10, %8
  store i32 %11, ptr %9, align 4, !tbaa !21
  %12 = getelementptr inbounds nuw i8, ptr %.0.i, i64 12
  %13 = zext nneg i8 %5 to i64
  %14 = getelementptr inbounds nuw [32 x i32], ptr %12, i64 0, i64 %13
  store i32 %2, ptr %14, align 4, !tbaa !37
  ret i8 %1
}